target datalayout = "e-m:e-p270:32:32-p271:32:32-p272:64:64-i64:64-i128:128-f80:128-n8:16:32:64-S128"
target triple = "x86_64-pc-linux-gnu"

%struct.ossl_property_definition_st = type { i32, i32, i32, i8, %union.anon }
%union.anon = type { i64 }

@.str = private unnamed_addr constant [44 x i8] c"../openssl/crypto/property/property_parse.c\00", align 1
@__func__.ossl_parse_property = private unnamed_addr constant [20 x i8] c"ossl_parse_property\00", align 1
@.str.1 = private unnamed_addr constant [23 x i8] c"Unknown name HERE-->%s\00", align 1
@.str.2 = private unnamed_addr constant [10 x i8] c"HERE-->%s\00", align 1

; Function Attrs: inlinehint nounwind uwtable
define internal void @sk_OSSL_PROPERTY_DEFINITION_pop_free(ptr noundef %0, ptr noundef %1) #2 {
  %3 = alloca ptr, align 8
  %4 = alloca ptr, align 8
  store ptr %0, ptr %3, align 8, !tbaa !14
  store ptr %1, ptr %4, align 8, !tbaa !25
  %5 = load ptr, ptr %3, align 8, !tbaa !14
  %6 = load ptr, ptr %4, align 8, !tbaa !25
  call void @OPENSSL_sk_pop_free(ptr noundef %5, ptr noundef %6)
  ret void
}

; Function Attrs: inlinehint nounwind uwtable
define internal i32 @sk_OSSL_PROPERTY_DEFINITION_push(ptr noundef %0, ptr noundef %1) #2 {
  %3 = alloca ptr, align 8
  %4 = alloca ptr, align 8
  store ptr %0, ptr %3, align 8, !tbaa !14
  store ptr %1, ptr %4, align 8, !tbaa !10
  %5 = load ptr, ptr %3, align 8, !tbaa !14
  %6 = load ptr, ptr %4, align 8, !tbaa !10
  %7 = call i32 @OPENSSL_sk_push(ptr noundef %5, ptr noundef %6)
  ret i32 %7
}

; Function Attrs: nounwind uwtable
define internal i32 @match_ch(ptr noundef %0, i8 noundef signext %1) #0 {
  %3 = alloca i32, align 4
  %4 = alloca ptr, align 8
  %5 = alloca i8, align 1
  %6 = alloca ptr, align 8
  %7 = alloca i32, align 4
  store ptr %0, ptr %4, align 8, !tbaa !29
  store i8 %1, ptr %5, align 1, !tbaa !16
  call void @llvm.lifetime.start.p0(i64 8, ptr %6) #7
  %8 = load ptr, ptr %4, align 8, !tbaa !29
  %9 = load ptr, ptr %8, align 8, !tbaa !8
  store ptr %9, ptr %6, align 8, !tbaa !8
  %10 = load ptr, ptr %6, align 8, !tbaa !8
  %11 = load i8, ptr %10, align 1, !tbaa !16
  %12 = sext i8 %11 to i32
  %13 = load i8, ptr %5, align 1, !tbaa !16
  %14 = sext i8 %13 to i32
  %15 = icmp eq i32 %12, %14
  br i1 %15, label %16, label %21

16:                                               ; preds = %2
  %17 = load ptr, ptr %6, align 8, !tbaa !8
  %18 = getelementptr inbounds i8, ptr %17, i64 1
  %19 = call ptr @skip_space(ptr noundef %18)
  %20 = load ptr, ptr %4, align 8, !tbaa !29
  store ptr %19, ptr %20, align 8, !tbaa !8
  store i32 1, ptr %3, align 4
  store i32 1, ptr %7, align 4
  br label %22

21:                                               ; preds = %2
  store i32 0, ptr %3, align 4
  store i32 1, ptr %7, align 4
  br label %22

22:                                               ; preds = %21, %16
  call void @llvm.lifetime.end.p0(i64 8, ptr %6) #7
  %23 = load i32, ptr %3, align 4
  ret i32 %23
}

; Function Attrs: nounwind uwtable
define internal ptr @skip_space(ptr noundef %0) #0 {
  %2 = alloca ptr, align 8
  store ptr %0, ptr %2, align 8, !tbaa !8
  br label %3

3:                                                ; preds = %9, %1
  %4 = load ptr, ptr %2, align 8, !tbaa !8
  %5 = load i8, ptr %4, align 1, !tbaa !16
  %6 = sext i8 %5 to i32
  %7 = call i32 @ossl_ctype_check(i32 noundef %6, i32 noundef 8)
  %8 = icmp ne i32 %7, 0
  br i1 %8, label %9, label %12

9:                                                ; preds = %3
  %10 = load ptr, ptr %2, align 8, !tbaa !8
  %11 = getelementptr inbounds nuw i8, ptr %10, i32 1
  store ptr %11, ptr %2, align 8, !tbaa !8
  br label %3, !llvm.loop !28

12:                                               ; preds = %3
  %13 = load ptr, ptr %2, align 8, !tbaa !8
  ret ptr %13
}

; Function Attrs: inlinehint nounwind uwtable
define internal ptr @sk_OSSL_PROPERTY_DEFINITION_new(ptr noundef %0) #2 {
  %2 = alloca ptr, align 8
  store ptr %0, ptr %2, align 8, !tbaa !25
  %3 = load ptr, ptr %2, align 8, !tbaa !25
  %4 = call ptr @OPENSSL_sk_new(ptr noundef %3)
  ret ptr %4
}

; Function Attrs: nounwind uwtable
define ptr @ossl_parse_property(ptr noundef %0, ptr noundef %1) #0 {
  %3 = alloca ptr, align 8
  %4 = alloca ptr, align 8
  %5 = alloca ptr, align 8
  %6 = alloca ptr, align 8
  %7 = alloca ptr, align 8
  %8 = alloca ptr, align 8
  %9 = alloca ptr, align 8
  %10 = alloca i32, align 4
  %11 = alloca i32, align 4
  %12 = alloca ptr, align 8
  store ptr %0, ptr %4, align 8, !tbaa !3
  store ptr %1, ptr %5, align 8, !tbaa !8
  call void @llvm.lifetime.start.p0(i64 8, ptr %6) #7
  store ptr null, ptr %6, align 8, !tbaa !10
  call void @llvm.lifetime.start.p0(i64 8, ptr %7) #7
  store ptr null, ptr %7, align 8, !tbaa !12
  call void @llvm.lifetime.start.p0(i64 8, ptr %8) #7
  call void @llvm.lifetime.start.p0(i64 8, ptr %9) #7
  %13 = load ptr, ptr %5, align 8, !tbaa !8
  store ptr %13, ptr %9, align 8, !tbaa !8
  call void @llvm.lifetime.start.p0(i64 4, ptr %10) #7
  %14 = load ptr, ptr %9, align 8, !tbaa !8
  %15 = icmp eq ptr %14, null
  br i1 %15, label %19, label %16

16:                                               ; preds = %2
  %17 = call ptr @sk_OSSL_PROPERTY_DEFINITION_new(ptr noundef @pd_compare)
  store ptr %17, ptr %8, align 8, !tbaa !14
  %18 = icmp eq ptr %17, null
  br i1 %18, label %19, label %20

19:                                               ; preds = %16, %2
  store ptr null, ptr %3, align 8
  store i32 1, ptr %11, align 4
  br label %106

20:                                               ; preds = %16
  %21 = load ptr, ptr %9, align 8, !tbaa !8
  %22 = call ptr @skip_space(ptr noundef %21)
  store ptr %22, ptr %9, align 8, !tbaa !8
  %23 = load ptr, ptr %9, align 8, !tbaa !8
  %24 = load i8, ptr %23, align 1, !tbaa !16
  %25 = sext i8 %24 to i32
  %26 = icmp eq i32 %25, 0
  %27 = zext i1 %26 to i32
  store i32 %27, ptr %10, align 4, !tbaa !17
  br label %28

28:                                               ; preds = %90, %20
  %29 = load i32, ptr %10, align 4, !tbaa !17
  %30 = icmp ne i32 %29, 0
  %31 = xor i1 %30, true
  br i1 %31, label %32, label %91

32:                                               ; preds = %28
  call void @llvm.lifetime.start.p0(i64 8, ptr %12) #7
  %33 = load ptr, ptr %9, align 8, !tbaa !8
  store ptr %33, ptr %12, align 8, !tbaa !8
  %34 = call noalias ptr @CRYPTO_malloc(i64 noundef 24, ptr noundef @.str, i32 noundef 361)
  store ptr %34, ptr %6, align 8, !tbaa !10
  %35 = load ptr, ptr %6, align 8, !tbaa !10
  %36 = icmp eq ptr %35, null
  br i1 %36, label %37, label %38

37:                                               ; preds = %32
  store i32 4, ptr %11, align 4
  br label %88

38:                                               ; preds = %32
  %39 = load ptr, ptr %6, align 8, !tbaa !10
  %40 = getelementptr inbounds nuw %struct.ossl_property_definition_st, ptr %39, i32 0, i32 4
  call void @llvm.memset.p0.i64(ptr align 8 %40, i8 0, i64 8, i1 false)
  %41 = load ptr, ptr %6, align 8, !tbaa !10
  %42 = getelementptr inbounds nuw %struct.ossl_property_definition_st, ptr %41, i32 0, i32 3
  %43 = load i8, ptr %42, align 4
  %44 = and i8 %43, -2
  %45 = or i8 %44, 0
  store i8 %45, ptr %42, align 4
  %46 = load ptr, ptr %4, align 8, !tbaa !3
  %47 = load ptr, ptr %6, align 8, !tbaa !10
  %48 = getelementptr inbounds nuw %struct.ossl_property_definition_st, ptr %47, i32 0, i32 0
  %49 = call i32 @parse_name(ptr noundef %46, ptr noundef %9, i32 noundef 1, ptr noundef %48)
  %50 = icmp ne i32 %49, 0
  br i1 %50, label %52, label %51

51:                                               ; preds = %38
  store i32 4, ptr %11, align 4
  br label %88

52:                                               ; preds = %38
  %53 = load ptr, ptr %6, align 8, !tbaa !10
  %54 = getelementptr inbounds nuw %struct.ossl_property_definition_st, ptr %53, i32 0, i32 2
  store i32 0, ptr %54, align 8, !tbaa !19
  %55 = load ptr, ptr %6, align 8, !tbaa !10
  %56 = getelementptr inbounds nuw %struct.ossl_property_definition_st, ptr %55, i32 0, i32 0
  %57 = load i32, ptr %56, align 8, !tbaa !21
  %58 = icmp eq i32 %57, 0
  br i1 %58, label %59, label %61

59:                                               ; preds = %52
  call void @ERR_new()
  call void @ERR_set_debug(ptr noundef @.str, i32 noundef 370, ptr noundef @__func__.ossl_parse_property)
  %60 = load ptr, ptr %12, align 8, !tbaa !8
  call void (i32, i32, ptr, ...) @ERR_set_error(i32 noundef 55, i32 noundef 108, ptr noundef @.str.1, ptr noundef %60)
  store i32 4, ptr %11, align 4
  br label %88

61:                                               ; preds = %52
  %62 = call i32 @match_ch(ptr noundef %9, i8 noundef signext 61)
  %63 = icmp ne i32 %62, 0
  br i1 %63, label %64, label %72

64:                                               ; preds = %61
  %65 = load ptr, ptr %4, align 8, !tbaa !3
  %66 = load ptr, ptr %6, align 8, !tbaa !10
  %67 = call i32 @parse_value(ptr noundef %65, ptr noundef %9, ptr noundef %66, i32 noundef 1)
  %68 = icmp ne i32 %67, 0
  br i1 %68, label %71, label %69

69:                                               ; preds = %64
  call void @ERR_new()
  call void @ERR_set_debug(ptr noundef @.str, i32 noundef 376, ptr noundef @__func__.ossl_parse_property)
  %70 = load ptr, ptr %12, align 8, !tbaa !8
  call void (i32, i32, ptr, ...) @ERR_set_error(i32 noundef 55, i32 noundef 107, ptr noundef @.str.2, ptr noundef %70)
  store i32 4, ptr %11, align 4
  br label %88

71:                                               ; preds = %64
  br label %77

72:                                               ; preds = %61
  %73 = load ptr, ptr %6, align 8, !tbaa !10
  %74 = getelementptr inbounds nuw %struct.ossl_property_definition_st, ptr %73, i32 0, i32 1
  store i32 0, ptr %74, align 4, !tbaa !22
  %75 = load ptr, ptr %6, align 8, !tbaa !10
  %76 = getelementptr inbounds nuw %struct.ossl_property_definition_st, ptr %75, i32 0, i32 4
  store i32 1, ptr %76, align 8, !tbaa !16
  br label %77

77:                                               ; preds = %72, %71
  %78 = load ptr, ptr %8, align 8, !tbaa !14
  %79 = load ptr, ptr %6, align 8, !tbaa !10
  %80 = call i32 @sk_OSSL_PROPERTY_DEFINITION_push(ptr noundef %78, ptr noundef %79)
  %81 = icmp ne i32 %80, 0
  br i1 %81, label %83, label %82

82:                                               ; preds = %77
  store i32 4, ptr %11, align 4
  br label %88

83:                                               ; preds = %77
  store ptr null, ptr %6, align 8, !tbaa !10
  %84 = call i32 @match_ch(ptr noundef %9, i8 noundef signext 44)
  %85 = icmp ne i32 %84, 0
  %86 = xor i1 %85, true
  %87 = zext i1 %86 to i32
  store i32 %87, ptr %10, align 4, !tbaa !17
  store i32 0, ptr %11, align 4
  br label %88

88:                                               ; preds = %82, %69, %59, %51, %37, %83
  call void @llvm.lifetime.end.p0(i64 8, ptr %12) #7
  %89 = load i32, ptr %11, align 4
  switch i32 %89, label %106 [
    i32 0, label %90
    i32 4, label %102
  ]

90:                                               ; preds = %88
  br label %28, !llvm.loop !23

91:                                               ; preds = %28
  %92 = load ptr, ptr %9, align 8, !tbaa !8
  %93 = load i8, ptr %92, align 1, !tbaa !16
  %94 = sext i8 %93 to i32
  %95 = icmp ne i32 %94, 0
  br i1 %95, label %96, label %98

96:                                               ; preds = %91
  call void @ERR_new()
  call void @ERR_set_debug(ptr noundef @.str, i32 noundef 392, ptr noundef @__func__.ossl_parse_property)
  %97 = load ptr, ptr %9, align 8, !tbaa !8
  call void (i32, i32, ptr, ...) @ERR_set_error(i32 noundef 55, i32 noundef 110, ptr noundef @.str.2, ptr noundef %97)
  br label %102

98:                                               ; preds = %91
  %99 = load ptr, ptr %4, align 8, !tbaa !3
  %100 = load ptr, ptr %8, align 8, !tbaa !14
  %101 = call ptr @stack_to_property_list(ptr noundef %99, ptr noundef %100)
  store ptr %101, ptr %7, align 8, !tbaa !12
  br label %102

102:                                              ; preds = %98, %88, %96
  %103 = load ptr, ptr %6, align 8, !tbaa !10
  call void @CRYPTO_free(ptr noundef %103, ptr noundef @.str, i32 noundef 399)
  %104 = load ptr, ptr %8, align 8, !tbaa !14
  call void @sk_OSSL_PROPERTY_DEFINITION_pop_free(ptr noundef %104, ptr noundef @pd_free)
  %105 = load ptr, ptr %7, align 8, !tbaa !12
  store ptr %105, ptr %3, align 8
  store i32 1, ptr %11, align 4
  br label %106

106:                                              ; preds = %102, %88, %19
  call void @llvm.lifetime.end.p0(i64 4, ptr %10) #7
  call void @llvm.lifetime.end.p0(i64 8, ptr %9) #7
  call void @llvm.lifetime.end.p0(i64 8, ptr %8) #7
  call void @llvm.lifetime.end.p0(i64 8, ptr %7) #7
  call void @llvm.lifetime.end.p0(i64 8, ptr %6) #7
  %107 = load ptr, ptr %3, align 8
  ret ptr %107
}